; Function Attrs: mustprogress uwtable
define void @_ZN3zmq12zap_client_t22handle_zap_status_codeEv(ptr noundef nonnull align 8 dereferenceable(72) %this) unnamed_addr #0 align 2 {
entry:
  %status_code = getelementptr inbounds i8, ptr %this, i64 40
  %call = tail call noundef nonnull align 1 dereferenceable(1) ptr @_ZNSt7__cxx1112basic_stringIcSt11char_traitsIcESaIcEEixEm(ptr noundef nonnull align 8 dereferenceable(32) %status_code, i64 noundef 0)
  %0 = load i8, ptr %call, align 1
  switch i8 %0, label %sw.epilog [
    i8 50, label %return
    i8 51, label %sw.bb2
    i8 52, label %sw.bb3
    i8 53, label %sw.bb4
  ]

sw.bb2:                                           ; preds = %entry
  br label %sw.epilog

sw.bb3:                                           ; preds = %entry
  br label %sw.epilog

sw.bb4:                                           ; preds = %entry
  br label %sw.epilog

sw.epilog:                                        ; preds = %sw.bb4, %sw.bb3, %sw.bb2, %entry
  %status_code_numeric.0 = phi i32 [ 0, %entry ], [ 500, %sw.bb4 ], [ 400, %sw.bb3 ], [ 300, %sw.bb2 ]
  %vtable = load ptr, ptr %this, align 8
  %vbase.offset.ptr = getelementptr i8, ptr %vtable, i64 -24
  %vbase.offset = load i64, ptr %vbase.offset.ptr, align 8
  %add.ptr = getelementptr inbounds i8, ptr %this, i64 %vbase.offset
  %session = getelementptr inbounds i8, ptr %add.ptr, i64 1488
  %1 = load ptr, ptr %session, align 8
  %call5 = tail call noundef ptr @_ZNK3zmq14session_base_t10get_socketEv(ptr noundef nonnull align 8 dereferenceable(1624) %1)
  %vtable6 = load ptr, ptr %this, align 8
  %vbase.offset.ptr7 = getelementptr i8, ptr %vtable6, i64 -24
  %vbase.offset8 = load i64, ptr %vbase.offset.ptr7, align 8
  %add.ptr9 = getelementptr inbounds i8, ptr %this, i64 %vbase.offset8
  %session10 = getelementptr inbounds i8, ptr %add.ptr9, i64 1488
  %2 = load ptr, ptr %session10, align 8
  %call11 = tail call noundef nonnull align 8 dereferenceable(68) ptr @_ZNK3zmq14session_base_t12get_endpointEv(ptr noundef nonnull align 8 dereferenceable(1624) %2)
  tail call void @_ZN3zmq13socket_base_t27event_handshake_failed_authERKNS_19endpoint_uri_pair_tEi(ptr noundef nonnull align 8 dereferenceable(1825) %call5, ptr noundef nonnull align 8 dereferenceable(68) %call11, i32 noundef %status_code_numeric.0)
  br label %return

return:                                           ; preds = %entry, %sw.epilog
  ret void
}